; Function Attrs: mustprogress uwtable
define void @_ZN29grpc_fake_channel_credentials25create_security_connectorEN9grpc_core13RefCountedPtrI21grpc_call_credentialsEEPKcPNS0_11ChannelArgsE(ptr noalias sret(%"class.grpc_core::RefCountedPtr") align 8 %agg.result, ptr noundef nonnull align 8 dereferenceable(16) %this, ptr nocapture noundef %call_creds, ptr noundef %target, ptr noundef nonnull %args) unnamed_addr #3 align 2 personality ptr @__gxx_personality_v0 {
entry:
  %agg.tmp = alloca %"class.grpc_core::RefCountedPtr.1", align 8
  %agg.tmp2 = alloca %"class.grpc_core::RefCountedPtr.0", align 8
  tail call void @llvm.experimental.noalias.scope.decl(metadata !4)
  %refs_.i.i = getelementptr inbounds i8, ptr %this, i64 8
  %0 = atomicrmw add ptr %refs_.i.i, i64 1 monotonic, align 8, !noalias !4
  store ptr %this, ptr %agg.tmp, align 8, !alias.scope !4
  %1 = load ptr, ptr %call_creds, align 8
  store ptr %1, ptr %agg.tmp2, align 8
  store ptr null, ptr %call_creds, align 8
  invoke void @_Z43grpc_fake_channel_security_connector_createN9grpc_core13RefCountedPtrI24grpc_channel_credentialsEENS0_I21grpc_call_credentialsEEPKcRKNS_11ChannelArgsE(ptr sret(%"class.grpc_core::RefCountedPtr") align 8 %agg.result, ptr noundef nonnull %agg.tmp, ptr noundef nonnull %agg.tmp2, ptr noundef %target, ptr noundef nonnull align 8 dereferenceable(8) %args)
          to label %invoke.cont unwind label %lpad

invoke.cont:                                      ; preds = %entry
  %2 = load ptr, ptr %agg.tmp2, align 8
  %cmp.not.i = icmp eq ptr %2, null
  br i1 %cmp.not.i, label %_ZN9grpc_core13RefCountedPtrI21grpc_call_credentialsED2Ev.exit, label %if.then.i

if.then.i:                                        ; preds = %invoke.cont
  %refs_.i.i1 = getelementptr inbounds i8, ptr %2, i64 8
  %3 = atomicrmw sub ptr %refs_.i.i1, i64 1 acq_rel, align 8
  %cmp.i.i.i = icmp eq i64 %3, 1
  br i1 %cmp.i.i.i, label %if.then.i.i, label %_ZN9grpc_core13RefCountedPtrI21grpc_call_credentialsED2Ev.exit

if.then.i.i:                                      ; preds = %if.then.i
  %vtable.i.i.i = load ptr, ptr %2, align 8
  %vfn.i.i.i = getelementptr inbounds i8, ptr %vtable.i.i.i, i64 8
  %4 = load ptr, ptr %vfn.i.i.i, align 8
  call void %4(ptr noundef nonnull align 8 dereferenceable(20) %2) #21
  br label %_ZN9grpc_core13RefCountedPtrI21grpc_call_credentialsED2Ev.exit

_ZN9grpc_core13RefCountedPtrI21grpc_call_credentialsED2Ev.exit: ; preds = %invoke.cont, %if.then.i, %if.then.i.i
  %5 = load ptr, ptr %agg.tmp, align 8
  %cmp.not.i2 = icmp eq ptr %5, null
  br i1 %cmp.not.i2, label %_ZN9grpc_core13RefCountedPtrI24grpc_channel_credentialsED2Ev.exit, label %if.then.i3

if.then.i3:                                       ; preds = %_ZN9grpc_core13RefCountedPtrI21grpc_call_credentialsED2Ev.exit
  %refs_.i.i4 = getelementptr inbounds i8, ptr %5, i64 8
  %6 = atomicrmw sub ptr %refs_.i.i4, i64 1 acq_rel, align 8
  %cmp.i.i.i5 = icmp eq i64 %6, 1
  br i1 %cmp.i.i.i5, label %if.then.i.i6, label %_ZN9grpc_core13RefCountedPtrI24grpc_channel_credentialsED2Ev.exit

if.then.i.i6:                                     ; preds = %if.then.i3
  %vtable.i.i.i7 = load ptr, ptr %5, align 8
  %vfn.i.i.i8 = getelementptr inbounds i8, ptr %vtable.i.i.i7, i64 8
  %7 = load ptr, ptr %vfn.i.i.i8, align 8
  call void %7(ptr noundef nonnull align 8 dereferenceable(16) %5) #21
  br label %_ZN9grpc_core13RefCountedPtrI24grpc_channel_credentialsED2Ev.exit

_ZN9grpc_core13RefCountedPtrI24grpc_channel_credentialsED2Ev.exit: ; preds = %_ZN9grpc_core13RefCountedPtrI21grpc_call_credentialsED2Ev.exit, %if.then.i3, %if.then.i.i6
  ret void

lpad:                                             ; preds = %entry
  %8 = landingpad { ptr, i32 }
          cleanup
  %9 = load ptr, ptr %agg.tmp2, align 8
  %cmp.not.i9 = icmp eq ptr %9, null
  br i1 %cmp.not.i9, label %_ZN9grpc_core13RefCountedPtrI21grpc_call_credentialsED2Ev.exit16, label %if.then.i10

if.then.i10:                                      ; preds = %lpad
  %refs_.i.i11 = getelementptr inbounds i8, ptr %9, i64 8
  %10 = atomicrmw sub ptr %refs_.i.i11, i64 1 acq_rel, align 8
  %cmp.i.i.i12 = icmp eq i64 %10, 1
  br i1 %cmp.i.i.i12, label %if.then.i.i13, label %_ZN9grpc_core13RefCountedPtrI21grpc_call_credentialsED2Ev.exit16

if.then.i.i13:                                    ; preds = %if.then.i10
  %vtable.i.i.i14 = load ptr, ptr %9, align 8
  %vfn.i.i.i15 = getelementptr inbounds i8, ptr %vtable.i.i.i14, i64 8
  %11 = load ptr, ptr %vfn.i.i.i15, align 8
  call void %11(ptr noundef nonnull align 8 dereferenceable(20) %9) #21
  br label %_ZN9grpc_core13RefCountedPtrI21grpc_call_credentialsED2Ev.exit16

_ZN9grpc_core13RefCountedPtrI21grpc_call_credentialsED2Ev.exit16: ; preds = %lpad, %if.then.i10, %if.then.i.i13
  %12 = load ptr, ptr %agg.tmp, align 8
  %cmp.not.i17 = icmp eq ptr %12, null
  br i1 %cmp.not.i17, label %_ZN9grpc_core13RefCountedPtrI24grpc_channel_credentialsED2Ev.exit24, label %if.then.i18

if.then.i18:                                      ; preds = %_ZN9grpc_core13RefCountedPtrI21grpc_call_credentialsED2Ev.exit16
  %refs_.i.i19 = getelementptr inbounds i8, ptr %12, i64 8
  %13 = atomicrmw sub ptr %refs_.i.i19, i64 1 acq_rel, align 8
  %cmp.i.i.i20 = icmp eq i64 %13, 1
  br i1 %cmp.i.i.i20, label %if.then.i.i21, label %_ZN9grpc_core13RefCountedPtrI24grpc_channel_credentialsED2Ev.exit24

if.then.i.i21:                                    ; preds = %if.then.i18
  %vtable.i.i.i22 = load ptr, ptr %12, align 8
  %vfn.i.i.i23 = getelementptr inbounds i8, ptr %vtable.i.i.i22, i64 8
  %14 = load ptr, ptr %vfn.i.i.i23, align 8
  call void %14(ptr noundef nonnull align 8 dereferenceable(16) %12) #21
  br label %_ZN9grpc_core13RefCountedPtrI24grpc_channel_credentialsED2Ev.exit24

_ZN9grpc_core13RefCountedPtrI24grpc_channel_credentialsED2Ev.exit24: ; preds = %_ZN9grpc_core13RefCountedPtrI21grpc_call_credentialsED2Ev.exit16, %if.then.i18, %if.then.i.i21
  resume { ptr, i32 } %8
}